target datalayout = "e-m:e-p270:32:32-p271:32:32-p272:64:64-i64:64-i128:128-f80:128-n8:16:32:64-S128"
target triple = "x86_64-pc-linux-gnu"

%struct.dt_pthread_mutex_t = type { %union.pthread_mutex_t }
%union.pthread_mutex_t = type { %struct.__pthread_mutex_s }
%struct.__pthread_mutex_s = type { i32, i32, i32, i32, i32, i16, i16, %struct.__pthread_internal_list }
%struct.__pthread_internal_list = type { ptr, ptr }
%struct.dt_iop_module_t = type { i32, ptr, ptr, ptr, ptr, ptr, ptr, ptr, ptr, ptr, ptr, ptr, ptr, ptr, ptr, ptr, ptr, ptr, ptr, ptr, ptr, ptr, ptr, ptr, ptr, ptr, ptr, ptr, ptr, ptr, ptr, ptr, ptr, ptr, ptr, ptr, ptr, ptr, ptr, ptr, ptr, ptr, ptr, ptr, ptr, ptr, ptr, ptr, ptr, ptr, ptr, ptr, ptr, ptr, ptr, ptr, ptr, [20 x i8], i32, i32, i32, i32, i32, i32, i32, [8 x i8], [4 x float], [4 x float], [4 x float], [4 x float], [4 x float], [4 x float], ptr, %struct.dt_dev_histogram_stats_t, [4 x i32], i32, i32, ptr, i32, i32, ptr, ptr, i32, ptr, %struct.dt_pthread_mutex_t, ptr, ptr, ptr, ptr, %struct.anon, ptr, ptr, ptr, ptr, ptr, ptr, ptr, i32, ptr, ptr, ptr, ptr, ptr, ptr, ptr, i32, ptr, i32, [128 x i8], i32, ptr, ptr, i32, [12 x i8] }
%struct.dt_dev_histogram_stats_t = type { i32, i64, i32, i32 }
%struct.anon = type { %struct.anon.0, %struct.anon.1 }
%struct.anon.0 = type { ptr, ptr }
%struct.anon.1 = type { ptr, i32 }
%struct.dt_iop_rgblevels_gui_data_t = type { %struct.dt_iop_rgblevels_params_t, ptr, ptr, ptr, ptr, ptr, ptr, i32, i32, float, float, float, float, [4 x float], i32, double, double, i32, i32, float, i32, float, ptr, ptr, ptr }
%struct.dt_iop_rgblevels_params_t = type { i32, i32, [3 x [3 x float]] }

; Function Attrs: nounwind uwtable
define internal void @_turn_select_region_off(ptr noundef %0) #0 {
  %2 = alloca ptr, align 8
  %3 = alloca ptr, align 8
  store ptr %0, ptr %2, align 8, !tbaa !6
  call void @llvm.lifetime.start.p0(i64 8, ptr %3) #13
  %4 = load ptr, ptr %2, align 8, !tbaa !6
  %5 = getelementptr inbounds nuw %struct.dt_iop_module_t, ptr %4, i32 0, i32 83
  %6 = load ptr, ptr %5, align 16, !tbaa !21
  store ptr %6, ptr %3, align 8, !tbaa !37
  %7 = load ptr, ptr %3, align 8, !tbaa !37
  %8 = icmp ne ptr %7, null
  br i1 %8, label %9, label %22

9:                                                ; preds = %1
  %10 = load ptr, ptr %3, align 8, !tbaa !37
  %11 = getelementptr inbounds nuw %struct.dt_iop_rgblevels_gui_data_t, ptr %10, i32 0, i32 8
  store i32 0, ptr %11, align 4, !tbaa !39
  %12 = load ptr, ptr %3, align 8, !tbaa !37
  %13 = getelementptr inbounds nuw %struct.dt_iop_rgblevels_gui_data_t, ptr %12, i32 0, i32 14
  store i32 0, ptr %13, align 8, !tbaa !44
  %14 = load ptr, ptr %3, align 8, !tbaa !37
  %15 = getelementptr inbounds nuw %struct.dt_iop_rgblevels_gui_data_t, ptr %14, i32 0, i32 6
  %16 = load ptr, ptr %15, align 8, !tbaa !148
  %17 = call i64 @gtk_toggle_button_get_type() #14
  %18 = call ptr @g_type_check_instance_cast(ptr noundef %16, i64 noundef %17)
  %19 = load ptr, ptr %3, align 8, !tbaa !37
  %20 = getelementptr inbounds nuw %struct.dt_iop_rgblevels_gui_data_t, ptr %19, i32 0, i32 8
  %21 = load i32, ptr %20, align 4, !tbaa !39
  call void @gtk_toggle_button_set_active(ptr noundef %18, i32 noundef %21)
  br label %22

22:                                               ; preds = %9, %1
  call void @llvm.lifetime.end.p0(i64 8, ptr %3) #13
  ret void
}

; Function Attrs: nounwind uwtable
define internal void @_rgblevels_show_hide_controls(ptr noundef %0, ptr noundef %1) #0 {
  %3 = alloca ptr, align 8
  %4 = alloca ptr, align 8
  store ptr %0, ptr %3, align 8, !tbaa !126
  store ptr %1, ptr %4, align 8, !tbaa !37
  %5 = load ptr, ptr %3, align 8, !tbaa !126
  %6 = getelementptr inbounds nuw %struct.dt_iop_rgblevels_params_t, ptr %5, i32 0, i32 0
  %7 = load i32, ptr %6, align 4, !tbaa !131
  switch i32 %7, label %16 [
    i32 1, label %8
    i32 0, label %12
  ]

8:                                                ; preds = %2
  %9 = load ptr, ptr %4, align 8, !tbaa !37
  %10 = getelementptr inbounds nuw %struct.dt_iop_rgblevels_gui_data_t, ptr %9, i32 0, i32 4
  %11 = load ptr, ptr %10, align 8, !tbaa !130
  call void @gtk_notebook_set_show_tabs(ptr noundef %11, i32 noundef 1)
  br label %16

12:                                               ; preds = %2
  %13 = load ptr, ptr %4, align 8, !tbaa !37
  %14 = getelementptr inbounds nuw %struct.dt_iop_rgblevels_gui_data_t, ptr %13, i32 0, i32 4
  %15 = load ptr, ptr %14, align 8, !tbaa !130
  call void @gtk_notebook_set_show_tabs(ptr noundef %15, i32 noundef 0)
  br label %16

16:                                               ; preds = %2, %12, %8
  %17 = load ptr, ptr %3, align 8, !tbaa !126
  %18 = getelementptr inbounds nuw %struct.dt_iop_rgblevels_params_t, ptr %17, i32 0, i32 0
  %19 = load i32, ptr %18, align 4, !tbaa !131
  %20 = icmp eq i32 %19, 0
  br i1 %20, label %21, label %25

21:                                               ; preds = %16
  %22 = load ptr, ptr %4, align 8, !tbaa !37
  %23 = getelementptr inbounds nuw %struct.dt_iop_rgblevels_gui_data_t, ptr %22, i32 0, i32 3
  %24 = load ptr, ptr %23, align 8, !tbaa !132
  call void @gtk_widget_set_visible(ptr noundef %24, i32 noundef 1)
  br label %29

25:                                               ; preds = %16
  %26 = load ptr, ptr %4, align 8, !tbaa !37
  %27 = getelementptr inbounds nuw %struct.dt_iop_rgblevels_gui_data_t, ptr %26, i32 0, i32 3
  %28 = load ptr, ptr %27, align 8, !tbaa !132
  call void @gtk_widget_set_visible(ptr noundef %28, i32 noundef 0)
  br label %29

29:                                               ; preds = %25, %21
  ret void
}

; Function Attrs: nounwind uwtable
define internal void @_turn_selregion_picker_off(ptr noundef %0) #0 {
  %2 = alloca ptr, align 8
  store ptr %0, ptr %2, align 8, !tbaa !6
  %3 = load ptr, ptr %2, align 8, !tbaa !6
  call void @_turn_select_region_off(ptr noundef %3)
  %4 = load ptr, ptr %2, align 8, !tbaa !6
  call void @dt_iop_color_picker_reset(ptr noundef %4, i32 noundef 1)
  ret void
}

; Function Attrs: nounwind uwtable
define void @gui_changed(ptr noundef %0, ptr noundef %1, ptr noundef %2) #0 {
  %4 = alloca ptr, align 8
  %5 = alloca ptr, align 8
  %6 = alloca ptr, align 8
  %7 = alloca ptr, align 8
  %8 = alloca ptr, align 8
  store ptr %0, ptr %4, align 8, !tbaa !6
  store ptr %1, ptr %5, align 8, !tbaa !123
  store ptr %2, ptr %6, align 8, !tbaa !124
  call void @llvm.lifetime.start.p0(i64 8, ptr %7) #13
  %9 = load ptr, ptr %4, align 8, !tbaa !6
  %10 = getelementptr inbounds nuw %struct.dt_iop_module_t, ptr %9, i32 0, i32 83
  %11 = load ptr, ptr %10, align 16, !tbaa !21
  store ptr %11, ptr %7, align 8, !tbaa !37
  call void @llvm.lifetime.start.p0(i64 8, ptr %8) #13
  %12 = load ptr, ptr %4, align 8, !tbaa !6
  %13 = getelementptr inbounds nuw %struct.dt_iop_module_t, ptr %12, i32 0, i32 80
  %14 = load ptr, ptr %13, align 8, !tbaa !125
  store ptr %14, ptr %8, align 8, !tbaa !126
  %15 = load ptr, ptr %4, align 8, !tbaa !6
  call void @_turn_selregion_picker_off(ptr noundef %15)
  %16 = load ptr, ptr %5, align 8, !tbaa !123
  %17 = load ptr, ptr %7, align 8, !tbaa !37
  %18 = getelementptr inbounds nuw %struct.dt_iop_rgblevels_gui_data_t, ptr %17, i32 0, i32 1
  %19 = load ptr, ptr %18, align 8, !tbaa !128
  %20 = icmp eq ptr %16, %19
  br i1 %20, label %21, label %34

21:                                               ; preds = %3
  %22 = load ptr, ptr %7, align 8, !tbaa !37
  %23 = getelementptr inbounds nuw %struct.dt_iop_rgblevels_gui_data_t, ptr %22, i32 0, i32 20
  store i32 0, ptr %23, align 4, !tbaa !129
  %24 = load ptr, ptr %7, align 8, !tbaa !37
  %25 = getelementptr inbounds nuw %struct.dt_iop_rgblevels_gui_data_t, ptr %24, i32 0, i32 4
  %26 = load ptr, ptr %25, align 8, !tbaa !130
  %27 = call i64 @gtk_notebook_get_type() #14
  %28 = call ptr @g_type_check_instance_cast(ptr noundef %26, i64 noundef %27)
  %29 = load ptr, ptr %7, align 8, !tbaa !37
  %30 = getelementptr inbounds nuw %struct.dt_iop_rgblevels_gui_data_t, ptr %29, i32 0, i32 20
  %31 = load i32, ptr %30, align 4, !tbaa !129
  call void @gtk_notebook_set_current_page(ptr noundef %28, i32 noundef %31)
  %32 = load ptr, ptr %8, align 8, !tbaa !126
  %33 = load ptr, ptr %7, align 8, !tbaa !37
  call void @_rgblevels_show_hide_controls(ptr noundef %32, ptr noundef %33)
  br label %34

34:                                               ; preds = %21, %3
  call void @llvm.lifetime.end.p0(i64 8, ptr %8) #13
  call void @llvm.lifetime.end.p0(i64 8, ptr %7) #13
  ret void
}