; Function Attrs: nounwind uwtable
define void @gui_changed(ptr noundef %0, ptr noundef readnone %1, ptr noundef readnone captures(none) %2) local_unnamed_addr #1 {
  %4 = getelementptr inbounds nuw i8, ptr %0, i64 704
  %5 = load ptr, ptr %4, align 16, !tbaa !6
  %6 = getelementptr inbounds nuw i8, ptr %0, i64 680
  %7 = load ptr, ptr %6, align 8, !tbaa !114
  %.not.i.i = icmp eq ptr %5, null
  br i1 %.not.i.i, label %_turn_selregion_picker_off.exit, label %8

8:                                                ; preds = %3
  %9 = getelementptr inbounds nuw i8, ptr %5, i64 100
  store i32 0, ptr %9, align 4, !tbaa !27
  %10 = getelementptr inbounds nuw i8, ptr %5, i64 136
  store i32 0, ptr %10, align 8, !tbaa !34
  %11 = getelementptr inbounds nuw i8, ptr %5, i64 88
  %12 = load ptr, ptr %11, align 8, !tbaa !113
  %13 = tail call i64 @gtk_toggle_button_get_type() #23
  %14 = tail call ptr @g_type_check_instance_cast(ptr noundef %12, i64 noundef %13) #21
  %15 = load i32, ptr %9, align 4, !tbaa !27
  tail call void @gtk_toggle_button_set_active(ptr noundef %14, i32 noundef %15) #21
  br label %_turn_selregion_picker_off.exit

_turn_selregion_picker_off.exit:                  ; preds = %3, %8
  tail call void @dt_iop_color_picker_reset(ptr noundef nonnull %0, i32 noundef 1) #21
  %16 = getelementptr inbounds nuw i8, ptr %5, i64 48
  %17 = load ptr, ptr %16, align 8, !tbaa !115
  %18 = icmp eq ptr %1, %17
  br i1 %18, label %19, label %32

19:                                               ; preds = %_turn_selregion_picker_off.exit
  %20 = getelementptr inbounds nuw i8, ptr %5, i64 172
  store i32 0, ptr %20, align 4, !tbaa !116
  %21 = getelementptr inbounds nuw i8, ptr %5, i64 72
  %22 = load ptr, ptr %21, align 8, !tbaa !117
  %23 = tail call i64 @gtk_notebook_get_type() #23
  %24 = tail call ptr @g_type_check_instance_cast(ptr noundef %22, i64 noundef %23) #21
  %25 = load i32, ptr %20, align 4, !tbaa !116
  tail call void @gtk_notebook_set_current_page(ptr noundef %24, i32 noundef %25) #21
  %26 = load i32, ptr %7, align 4, !tbaa !118
  %switch = icmp ult i32 %26, 2
  br i1 %switch, label %27, label %.thread.i

27:                                               ; preds = %19
  %28 = load ptr, ptr %21, align 8, !tbaa !117
  tail call void @gtk_notebook_set_show_tabs(ptr noundef %28, i32 noundef %26) #21
  %.pr.i = load i32, ptr %7, align 4, !tbaa !118
  %29 = icmp eq i32 %.pr.i, 0
  br i1 %29, label %_rgblevels_show_hide_controls.exit, label %.thread.i

.thread.i:                                        ; preds = %19, %27
  br label %_rgblevels_show_hide_controls.exit

_rgblevels_show_hide_controls.exit:               ; preds = %27, %.thread.i
  %.sink8.i = phi i32 [ 0, %.thread.i ], [ 1, %27 ]
  %30 = getelementptr inbounds nuw i8, ptr %5, i64 64
  %31 = load ptr, ptr %30, align 8, !tbaa !119
  tail call void @gtk_widget_set_visible(ptr noundef %31, i32 noundef %.sink8.i) #21
  br label %32

32:                                               ; preds = %_rgblevels_show_hide_controls.exit, %_turn_selregion_picker_off.exit
  ret void
}